target datalayout = "e-m:e-p270:32:32-p271:32:32-p272:64:64-i64:64-i128:128-f80:128-n8:16:32:64-S128"
target triple = "x86_64-pc-linux-gnu"

%struct._packet_info = type { ptr, ptr, i32, i32, %struct.nstime_t, %struct.nstime_t, %struct.nstime_t, i32, ptr, ptr, ptr, ptr, %struct._address, %struct._address, %struct._address, %struct._address, %struct._address, %struct._address, i32, ptr, i32, %struct.anon, i32, i32, i32, i32, ptr, i32, ptr, ptr, i16, i16, i32, i32, i16, i32, i32, ptr, ptr, ptr, i8, i8, i16, i16, i16, i32, i16, i16, ptr, ptr, ptr, ptr, ptr, i32 }
%struct.nstime_t = type { i64, i32 }
%struct._address = type { i32, i32, ptr, ptr }
%struct.anon = type { i8, [3 x i8] }

@hf_uci_session_id = internal global i32 0, align 4
@hf_uci_update_controller_multicast_list_action = internal global i32 0, align 4
@hf_uci_controlees_count = internal global i32 0, align 4
@hf_uci_controlee_short_address = internal global i32 0, align 4
@hf_uci_controlee_subsession_id = internal global i32 0, align 4
@ett_uci_controlee_list = internal global i32 0, align 4
@ett_uci_controlee = internal global i32 0, align 4
@.str.306 = private unnamed_addr constant [45 x i8] c"Session Update Controller Multicast List Cmd\00", align 1
@.str.307 = private unnamed_addr constant [15 x i8] c"Controlee List\00", align 1
@.str.308 = private unnamed_addr constant [10 x i8] c"Controlee\00", align 1

; Function Attrs: nounwind uwtable
define internal void @dissect_session_update_controller_multicast_list_cmd(ptr noundef %0, i32 noundef %1, ptr noundef %2, ptr noundef %3) #0 {
  %5 = alloca ptr, align 8
  %6 = alloca i32, align 4
  %7 = alloca ptr, align 8
  %8 = alloca ptr, align 8
  %9 = alloca i32, align 4
  %10 = alloca ptr, align 8
  %11 = alloca i32, align 4
  %12 = alloca ptr, align 8
  store ptr %0, ptr %5, align 8
  store i32 %1, ptr %6, align 4
  store ptr %2, ptr %7, align 8
  store ptr %3, ptr %8, align 8
  %13 = load ptr, ptr %7, align 8
  %14 = getelementptr inbounds %struct._packet_info, ptr %13, i32 0, i32 1
  %15 = load ptr, ptr %14, align 8
  call void (ptr, i32, ptr, ...) @col_add_fstr(ptr noundef %15, i32 noundef 25, ptr noundef @.str.306)
  %16 = load ptr, ptr %8, align 8
  %17 = load i32, ptr @hf_uci_session_id, align 4
  %18 = load ptr, ptr %5, align 8
  %19 = load i32, ptr %6, align 4
  %20 = call ptr @proto_tree_add_item(ptr noundef %16, i32 noundef %17, ptr noundef %18, i32 noundef %19, i32 noundef 4, i32 noundef -2147483648)
  %21 = load i32, ptr %6, align 4
  %22 = add i32 %21, 4
  store i32 %22, ptr %6, align 4
  %23 = load ptr, ptr %8, align 8
  %24 = load i32, ptr @hf_uci_update_controller_multicast_list_action, align 4
  %25 = load ptr, ptr %5, align 8
  %26 = load i32, ptr %6, align 4
  %27 = call ptr @proto_tree_add_item(ptr noundef %23, i32 noundef %24, ptr noundef %25, i32 noundef %26, i32 noundef 1, i32 noundef 0)
  %28 = load i32, ptr %6, align 4
  %29 = add i32 %28, 1
  store i32 %29, ptr %6, align 4
  %30 = load ptr, ptr %5, align 8
  %31 = load i32, ptr %6, align 4
  %32 = call zeroext i8 @tvb_get_guint8(ptr noundef %30, i32 noundef %31)
  %33 = zext i8 %32 to i32
  store i32 %33, ptr %9, align 4
  %34 = load ptr, ptr %8, align 8
  %35 = load i32, ptr @hf_uci_controlees_count, align 4
  %36 = load ptr, ptr %5, align 8
  %37 = load i32, ptr %6, align 4
  %38 = call ptr @proto_tree_add_item(ptr noundef %34, i32 noundef %35, ptr noundef %36, i32 noundef %37, i32 noundef 1, i32 noundef 0)
  %39 = load i32, ptr %6, align 4
  %40 = add i32 %39, 1
  store i32 %40, ptr %6, align 4
  %41 = load i32, ptr %9, align 4
  %42 = icmp eq i32 %41, 0
  br i1 %42, label %43, label %44

43:                                               ; preds = %4
  br label %77

44:                                               ; preds = %4
  %45 = load ptr, ptr %8, align 8
  %46 = load ptr, ptr %5, align 8
  %47 = load i32, ptr %6, align 4
  %48 = load i32, ptr @ett_uci_controlee_list, align 4
  %49 = call ptr @proto_tree_add_subtree(ptr noundef %45, ptr noundef %46, i32 noundef %47, i32 noundef -1, i32 noundef %48, ptr noundef null, ptr noundef @.str.307)
  store ptr %49, ptr %10, align 8
  store i32 0, ptr %11, align 4
  br label %50

50:                                               ; preds = %74, %44
  %51 = load i32, ptr %11, align 4
  %52 = load i32, ptr %9, align 4
  %53 = icmp slt i32 %51, %52
  br i1 %53, label %54, label %77

54:                                               ; preds = %50
  %55 = load ptr, ptr %10, align 8
  %56 = load ptr, ptr %5, align 8
  %57 = load i32, ptr %6, align 4
  %58 = load i32, ptr @ett_uci_controlee, align 4
  %59 = call ptr @proto_tree_add_subtree(ptr noundef %55, ptr noundef %56, i32 noundef %57, i32 noundef -1, i32 noundef %58, ptr noundef null, ptr noundef @.str.308)
  store ptr %59, ptr %12, align 8
  %60 = load ptr, ptr %12, align 8
  %61 = load i32, ptr @hf_uci_controlee_short_address, align 4
  %62 = load ptr, ptr %5, align 8
  %63 = load i32, ptr %6, align 4
  %64 = call ptr @proto_tree_add_item(ptr noundef %60, i32 noundef %61, ptr noundef %62, i32 noundef %63, i32 noundef 2, i32 noundef -2147483648)
  %65 = load i32, ptr %6, align 4
  %66 = add i32 %65, 2
  store i32 %66, ptr %6, align 4
  %67 = load ptr, ptr %12, align 8
  %68 = load i32, ptr @hf_uci_controlee_subsession_id, align 4
  %69 = load ptr, ptr %5, align 8
  %70 = load i32, ptr %6, align 4
  %71 = call ptr @proto_tree_add_item(ptr noundef %67, i32 noundef %68, ptr noundef %69, i32 noundef %70, i32 noundef 4, i32 noundef -2147483648)
  %72 = load i32, ptr %6, align 4
  %73 = add i32 %72, 4
  store i32 %73, ptr %6, align 4
  br label %74

74:                                               ; preds = %54
  %75 = load i32, ptr %11, align 4
  %76 = add i32 %75, 1
  store i32 %76, ptr %11, align 4
  br label %50, !llvm.loop !11

77:                                               ; preds = %50, %43
  ret void
}